; Function Attrs: mustprogress nofree nounwind uwtable
define internal noundef i32 @_ZN4absl13time_internal4cctz12_GLOBAL__N_118FileZoneInfoSource4SkipEm(ptr noundef nonnull align 8 captures(none) dereferenceable(32) %0, i64 noundef %1) unnamed_addr #19 align 2 {
  %3 = getelementptr inbounds nuw i8, ptr %0, i64 24
  %4 = load i64, ptr %3, align 8, !tbaa !74
  %.sroa.speculated = tail call i64 @llvm.umin.i64(i64 %4, i64 %1)
  %5 = getelementptr inbounds nuw i8, ptr %0, i64 16
  %6 = load ptr, ptr %5, align 8, !tbaa !267
  %7 = tail call i32 @fseek(ptr noundef %6, i64 noundef %.sroa.speculated, i32 noundef 1)
  %8 = icmp eq i32 %7, 0
  br i1 %8, label %9, label %12

9:                                                ; preds = %2
  %10 = load i64, ptr %3, align 8, !tbaa !269
  %11 = sub i64 %10, %.sroa.speculated
  store i64 %11, ptr %3, align 8, !tbaa !269
  br label %12

12:                                               ; preds = %9, %2
  ret i32 %7
}